target datalayout = "e-m:e-p270:32:32-p271:32:32-p272:64:64-i64:64-i128:128-f80:128-n8:16:32:64-S128"
target triple = "x86_64-pc-linux-gnu"

; Function Attrs: mustprogress uwtable
define dso_local noundef i32 @_ZN12b3DynamicBvh8maxdepthEPK10b3DbvtNode(ptr noundef %0) #0 align 2 {
  %2 = alloca ptr, align 8
  %3 = alloca i32, align 4
  store ptr %0, ptr %2, align 8, !tbaa !28
  call void @llvm.lifetime.start.p0(i64 4, ptr %3) #12
  store i32 0, ptr %3, align 4, !tbaa !32
  %4 = load ptr, ptr %2, align 8, !tbaa !28
  %5 = icmp ne ptr %4, null
  br i1 %5, label %6, label %8

6:                                                ; preds = %1
  %7 = load ptr, ptr %2, align 8, !tbaa !28
  call void @_ZL13b3GetMaxDepthPK10b3DbvtNodeiRi(ptr noundef %7, i32 noundef 1, ptr noundef nonnull align 4 dereferenceable(4) %3)
  br label %8

8:                                                ; preds = %6, %1
  %9 = load i32, ptr %3, align 4, !tbaa !32
  call void @llvm.lifetime.end.p0(i64 4, ptr %3) #12
  ret i32 %9
}