; Function Attrs: mustprogress nofree nosync nounwind memory(readwrite, inaccessiblemem: none) uwtable
define dso_local noundef i32 @_ZN12b3DynamicBvh8maxdepthEPK10b3DbvtNode(ptr noundef readonly captures(address_is_null) %0) local_unnamed_addr #11 align 2 {
  %2 = alloca i32, align 4
  call void @llvm.lifetime.start.p0(i64 4, ptr nonnull %2) #19
  store i32 0, ptr %2, align 4, !tbaa !62
  %.not = icmp eq ptr %0, null
  br i1 %.not, label %4, label %3

3:                                                ; preds = %1
  call fastcc void @_ZL13b3GetMaxDepthPK10b3DbvtNodeiRi(ptr noundef nonnull %0, i32 noundef 1, ptr noundef nonnull align 4 dereferenceable(4) %2)
  %.pre = load i32, ptr %2, align 4, !tbaa !62
  br label %4

4:                                                ; preds = %3, %1
  %5 = phi i32 [ %.pre, %3 ], [ 0, %1 ]
  call void @llvm.lifetime.end.p0(i64 4, ptr nonnull %2) #19
  ret i32 %5
}